target datalayout = "e-m:e-p270:32:32-p271:32:32-p272:64:64-i64:64-i128:128-f80:128-n8:16:32:64-S128"
target triple = "x86_64-pc-linux-gnu"

%struct.pmix_object_t = type { %union.pthread_mutex_t, ptr, i32, %struct.pmix_tma }
%union.pthread_mutex_t = type { %struct.__pthread_mutex_s }
%struct.__pthread_mutex_s = type { i32, i32, i32, i32, i32, i16, i16, %struct.__pthread_internal_list }
%struct.__pthread_internal_list = type { ptr, ptr }
%struct.pmix_tma = type { ptr, ptr, ptr, ptr, ptr, ptr, ptr, ptr }
%struct.pmix_proc = type { [256 x i8], i32 }
%struct.timeval = type { i64, i64 }
%struct.pmix_iof_flags_t = type { i8, i8, i8, i8, i8, i8, i8, ptr, ptr, i8, i8, i8, i8, i8, i8 }
%struct.pmix_class_t = type { ptr, ptr, ptr, ptr, i32, i32, ptr, ptr, i64 }
%struct.event = type { %struct.event_callback, %union.anon.0, i32, ptr, %union.anon.2, i16, i16, %struct.timeval }
%struct.event_callback = type { %struct.anon, i16, i8, i8, %union.anon, ptr }
%struct.anon = type { ptr, ptr }
%union.anon = type { ptr }
%union.anon.0 = type { %struct.anon.1 }
%struct.anon.1 = type { ptr, ptr }
%union.anon.2 = type { %struct.anon.3 }
%struct.anon.3 = type { %struct.anon.4, %struct.timeval }
%struct.anon.4 = type { ptr, ptr }
%struct.pmix_lock_t = type { i32, %struct.pmix_mutex_t, %union.pthread_cond_t, i8 }
%struct.pmix_mutex_t = type { %struct.pmix_object_t, %union.pthread_mutex_t }
%union.pthread_cond_t = type { %struct.__pthread_cond_s }
%struct.__pthread_cond_s = type { %union.__atomic_wide_counter, %union.__atomic_wide_counter, [2 x i32], [2 x i32], i32, i32, [2 x i32] }
%union.__atomic_wide_counter = type { i64 }
%struct.pmix_setup_caddy_t = type { %struct.pmix_object_t, %struct.event, %struct.pmix_lock_t, ptr, ptr, i32, ptr, i64, %struct.pmix_proc, ptr, i64, i32, i32, ptr, i32, ptr, i64, ptr, i64, i8, ptr, ptr, i64, i16, %struct.pmix_iof_flags_t, ptr, i64, i64, i32, ptr, ptr, ptr, ptr, ptr, ptr }

@.str.86 = private unnamed_addr constant [21 x i8] c"pthread_mutex_lock()\00", align 1

; Function Attrs: inlinehint nounwind uwtable
define internal void @pmix_tma_free(ptr noundef %0, ptr noundef %1) #4 {
  %3 = alloca ptr, align 8
  %4 = alloca ptr, align 8
  store ptr %0, ptr %3, align 8, !tbaa !132
  store ptr %1, ptr %4, align 8, !tbaa !8
  %5 = load ptr, ptr %3, align 8, !tbaa !132
  %6 = icmp ne ptr null, %5
  br i1 %6, label %7, label %13

7:                                                ; preds = %2
  %8 = load ptr, ptr %3, align 8, !tbaa !132
  %9 = getelementptr inbounds nuw %struct.pmix_tma, ptr %8, i32 0, i32 5
  %10 = load ptr, ptr %9, align 8, !tbaa !148
  %11 = load ptr, ptr %3, align 8, !tbaa !132
  %12 = load ptr, ptr %4, align 8, !tbaa !8
  call void %10(ptr noundef %11, ptr noundef %12)
  br label %15

13:                                               ; preds = %2
  %14 = load ptr, ptr %4, align 8, !tbaa !8
  call void @free(ptr noundef %14) #14
  br label %15

15:                                               ; preds = %13, %7
  ret void
}

; Function Attrs: inlinehint nounwind uwtable
define internal void @pmix_obj_run_destructors(ptr noundef %0) #4 {
  %2 = alloca ptr, align 8
  %3 = alloca ptr, align 8
  store ptr %0, ptr %2, align 8, !tbaa !89
  call void @llvm.lifetime.start.p0(i64 8, ptr %3) #14
  %4 = load ptr, ptr %2, align 8, !tbaa !89
  %5 = getelementptr inbounds nuw %struct.pmix_object_t, ptr %4, i32 0, i32 1
  %6 = load ptr, ptr %5, align 8, !tbaa !82
  %7 = getelementptr inbounds nuw %struct.pmix_class_t, ptr %6, i32 0, i32 7
  %8 = load ptr, ptr %7, align 8, !tbaa !146
  store ptr %8, ptr %3, align 8, !tbaa !8
  br label %9

9:                                                ; preds = %13, %1
  %10 = load ptr, ptr %3, align 8, !tbaa !8
  %11 = load ptr, ptr %10, align 8, !tbaa !8
  %12 = icmp ne ptr null, %11
  br i1 %12, label %13, label %19

13:                                               ; preds = %9
  %14 = load ptr, ptr %3, align 8, !tbaa !8
  %15 = load ptr, ptr %14, align 8, !tbaa !8
  %16 = load ptr, ptr %2, align 8, !tbaa !89
  call void %15(ptr noundef %16)
  %17 = load ptr, ptr %3, align 8, !tbaa !8
  %18 = getelementptr inbounds nuw ptr, ptr %17, i32 1
  store ptr %18, ptr %3, align 8, !tbaa !8
  br label %9, !llvm.loop !147

19:                                               ; preds = %9
  call void @llvm.lifetime.end.p0(i64 8, ptr %3) #14
  ret void
}

; Function Attrs: alwaysinline nounwind uwtable
define internal i32 @pmix_obj_update(ptr noundef %0, i32 noundef %1) #6 {
  %3 = alloca ptr, align 8
  %4 = alloca i32, align 4
  %5 = alloca i32, align 4
  store ptr %0, ptr %3, align 8, !tbaa !89
  store i32 %1, ptr %4, align 4, !tbaa !28
  call void @llvm.lifetime.start.p0(i64 4, ptr %5) #14
  %6 = load ptr, ptr %3, align 8, !tbaa !89
  %7 = getelementptr inbounds nuw %struct.pmix_object_t, ptr %6, i32 0, i32 0
  %8 = call i32 @pthread_mutex_lock(ptr noundef %7) #14
  store i32 %8, ptr %5, align 4, !tbaa !28
  %9 = load i32, ptr %5, align 4, !tbaa !28
  %10 = icmp eq i32 %9, 35
  br i1 %10, label %11, label %14

11:                                               ; preds = %2
  %12 = load i32, ptr %5, align 4, !tbaa !28
  %13 = call ptr @__errno_location() #16
  store i32 %12, ptr %13, align 4, !tbaa !28
  call void @perror(ptr noundef @.str.86)
  call void @abort() #17
  unreachable

14:                                               ; preds = %2
  %15 = load i32, ptr %4, align 4, !tbaa !28
  %16 = load ptr, ptr %3, align 8, !tbaa !89
  %17 = getelementptr inbounds nuw %struct.pmix_object_t, ptr %16, i32 0, i32 2
  %18 = load i32, ptr %17, align 8, !tbaa !83
  %19 = add nsw i32 %18, %15
  store i32 %19, ptr %17, align 8, !tbaa !83
  store i32 %19, ptr %5, align 4, !tbaa !28
  %20 = load ptr, ptr %3, align 8, !tbaa !89
  %21 = getelementptr inbounds nuw %struct.pmix_object_t, ptr %20, i32 0, i32 0
  %22 = call i32 @pthread_mutex_unlock(ptr noundef %21) #14
  %23 = load i32, ptr %5, align 4, !tbaa !28
  call void @llvm.lifetime.end.p0(i64 4, ptr %5) #14
  ret i32 %23
}

; Function Attrs: nounwind uwtable
define internal void @opcbfunc(i32 noundef %0, ptr noundef %1) #0 {
  %3 = alloca i32, align 4
  %4 = alloca ptr, align 8
  %5 = alloca ptr, align 8
  %6 = alloca ptr, align 8
  store i32 %0, ptr %3, align 4, !tbaa !28
  store ptr %1, ptr %4, align 8, !tbaa !8
  call void @llvm.lifetime.start.p0(i64 8, ptr %5) #14
  %7 = load ptr, ptr %4, align 8, !tbaa !8
  store ptr %7, ptr %5, align 8, !tbaa !8
  %8 = load ptr, ptr %5, align 8, !tbaa !8
  %9 = getelementptr inbounds nuw %struct.pmix_setup_caddy_t, ptr %8, i32 0, i32 20
  %10 = load ptr, ptr %9, align 8, !tbaa !234
  %11 = icmp ne ptr null, %10
  br i1 %11, label %12, label %16

12:                                               ; preds = %2
  %13 = load ptr, ptr %5, align 8, !tbaa !8
  %14 = getelementptr inbounds nuw %struct.pmix_setup_caddy_t, ptr %13, i32 0, i32 20
  %15 = load ptr, ptr %14, align 8, !tbaa !234
  call void @PMIx_Argv_free(ptr noundef %15)
  br label %16

16:                                               ; preds = %12, %2
  %17 = load ptr, ptr %5, align 8, !tbaa !8
  %18 = getelementptr inbounds nuw %struct.pmix_setup_caddy_t, ptr %17, i32 0, i32 6
  %19 = load ptr, ptr %18, align 8, !tbaa !235
  %20 = icmp ne ptr null, %19
  br i1 %20, label %21, label %25

21:                                               ; preds = %16
  %22 = load ptr, ptr %5, align 8, !tbaa !8
  %23 = getelementptr inbounds nuw %struct.pmix_setup_caddy_t, ptr %22, i32 0, i32 6
  %24 = load ptr, ptr %23, align 8, !tbaa !235
  call void @free(ptr noundef %24) #14
  br label %25

25:                                               ; preds = %21, %16
  %26 = load ptr, ptr %5, align 8, !tbaa !8
  %27 = getelementptr inbounds nuw %struct.pmix_setup_caddy_t, ptr %26, i32 0, i32 15
  %28 = load ptr, ptr %27, align 8, !tbaa !233
  %29 = icmp ne ptr null, %28
  br i1 %29, label %30, label %42

30:                                               ; preds = %25
  br label %31

31:                                               ; preds = %30
  %32 = load ptr, ptr %5, align 8, !tbaa !8
  %33 = getelementptr inbounds nuw %struct.pmix_setup_caddy_t, ptr %32, i32 0, i32 15
  %34 = load ptr, ptr %33, align 8, !tbaa !233
  %35 = load ptr, ptr %5, align 8, !tbaa !8
  %36 = getelementptr inbounds nuw %struct.pmix_setup_caddy_t, ptr %35, i32 0, i32 16
  %37 = load i64, ptr %36, align 8, !tbaa !232
  call void @PMIx_Info_free(ptr noundef %34, i64 noundef %37)
  %38 = load ptr, ptr %5, align 8, !tbaa !8
  %39 = getelementptr inbounds nuw %struct.pmix_setup_caddy_t, ptr %38, i32 0, i32 15
  store ptr null, ptr %39, align 8, !tbaa !233
  br label %40

40:                                               ; preds = %31
  br label %41

41:                                               ; preds = %40
  br label %42

42:                                               ; preds = %41, %25
  %43 = load ptr, ptr %5, align 8, !tbaa !8
  %44 = getelementptr inbounds nuw %struct.pmix_setup_caddy_t, ptr %43, i32 0, i32 29
  %45 = load ptr, ptr %44, align 8, !tbaa !231
  %46 = icmp ne ptr null, %45
  br i1 %46, label %47, label %55

47:                                               ; preds = %42
  %48 = load ptr, ptr %5, align 8, !tbaa !8
  %49 = getelementptr inbounds nuw %struct.pmix_setup_caddy_t, ptr %48, i32 0, i32 29
  %50 = load ptr, ptr %49, align 8, !tbaa !231
  %51 = load i32, ptr %3, align 4, !tbaa !28
  %52 = load ptr, ptr %5, align 8, !tbaa !8
  %53 = getelementptr inbounds nuw %struct.pmix_setup_caddy_t, ptr %52, i32 0, i32 34
  %54 = load ptr, ptr %53, align 8, !tbaa !130
  call void %50(i32 noundef %51, ptr noundef %54)
  br label %55

55:                                               ; preds = %47, %42
  br label %56

56:                                               ; preds = %55
  call void @llvm.lifetime.start.p0(i64 8, ptr %6) #14
  %57 = load ptr, ptr %5, align 8, !tbaa !8
  store ptr %57, ptr %6, align 8, !tbaa !89
  %58 = load ptr, ptr %6, align 8, !tbaa !89
  %59 = call i32 @pmix_obj_update(ptr noundef %58, i32 noundef -1)
  %60 = icmp eq i32 0, %59
  br i1 %60, label %61, label %75

61:                                               ; preds = %56
  %62 = load ptr, ptr %6, align 8, !tbaa !89
  call void @pmix_obj_run_destructors(ptr noundef %62)
  %63 = load ptr, ptr %6, align 8, !tbaa !89
  %64 = getelementptr inbounds nuw %struct.pmix_object_t, ptr %63, i32 0, i32 3
  %65 = getelementptr inbounds nuw %struct.pmix_tma, ptr %64, i32 0, i32 5
  %66 = load ptr, ptr %65, align 8, !tbaa !91
  %67 = icmp ne ptr null, %66
  br i1 %67, label %68, label %72

68:                                               ; preds = %61
  %69 = load ptr, ptr %6, align 8, !tbaa !89
  %70 = getelementptr inbounds nuw %struct.pmix_object_t, ptr %69, i32 0, i32 3
  %71 = load ptr, ptr %5, align 8, !tbaa !8
  call void @pmix_tma_free(ptr noundef %70, ptr noundef %71)
  br label %74

72:                                               ; preds = %61
  %73 = load ptr, ptr %5, align 8, !tbaa !8
  call void @free(ptr noundef %73) #14
  br label %74

74:                                               ; preds = %72, %68
  store ptr null, ptr %5, align 8, !tbaa !8
  br label %75

75:                                               ; preds = %74, %56
  call void @llvm.lifetime.end.p0(i64 8, ptr %6) #14
  br label %76

76:                                               ; preds = %75
  br label %77

77:                                               ; preds = %76
  call void @llvm.lifetime.end.p0(i64 8, ptr %5) #14
  ret void
}