; Function Attrs: nounwind uwtable
define internal void @opcbfunc(i32 noundef %0, ptr noundef %1) #0 {
  %3 = getelementptr inbounds nuw i8, ptr %1, i64 856
  %4 = load ptr, ptr %3, align 8, !tbaa !201
  %.not = icmp eq ptr %4, null
  br i1 %.not, label %6, label %5

5:                                                ; preds = %2
  tail call void @PMIx_Argv_free(ptr noundef nonnull %4) #19
  br label %6

6:                                                ; preds = %5, %2
  %7 = getelementptr inbounds nuw i8, ptr %1, i64 496
  %8 = load ptr, ptr %7, align 8, !tbaa !202
  %.not22 = icmp eq ptr %8, null
  br i1 %.not22, label %10, label %9

9:                                                ; preds = %6
  tail call void @free(ptr noundef nonnull %8) #19
  br label %10

10:                                               ; preds = %9, %6
  %11 = getelementptr inbounds nuw i8, ptr %1, i64 816
  %12 = load ptr, ptr %11, align 8, !tbaa !200
  %.not23 = icmp eq ptr %12, null
  br i1 %.not23, label %16, label %13

13:                                               ; preds = %10
  %14 = getelementptr inbounds nuw i8, ptr %1, i64 824
  %15 = load i64, ptr %14, align 8, !tbaa !199
  tail call void @PMIx_Info_free(ptr noundef nonnull %12, i64 noundef %15) #19
  store ptr null, ptr %11, align 8, !tbaa !200
  br label %16

16:                                               ; preds = %13, %10
  %17 = getelementptr inbounds nuw i8, ptr %1, i64 952
  %18 = load ptr, ptr %17, align 8, !tbaa !198
  %.not24 = icmp eq ptr %18, null
  br i1 %.not24, label %22, label %19

19:                                               ; preds = %16
  %20 = getelementptr inbounds nuw i8, ptr %1, i64 992
  %21 = load ptr, ptr %20, align 8, !tbaa !128
  tail call void %18(i32 noundef %0, ptr noundef %21) #19
  br label %22

22:                                               ; preds = %16, %19
  %23 = tail call i32 @pthread_mutex_lock(ptr noundef nonnull %1) #19
  %24 = icmp eq i32 %23, 35
  br i1 %24, label %25, label %pmix_obj_update.exit

25:                                               ; preds = %22
  %26 = tail call ptr @__errno_location() #22
  store i32 35, ptr %26, align 4, !tbaa !23
  tail call void @perror(ptr noundef nonnull @.str.86) #23
  tail call void @abort() #24
  unreachable

pmix_obj_update.exit:                             ; preds = %22
  %27 = getelementptr inbounds nuw i8, ptr %1, i64 48
  %28 = load i32, ptr %27, align 8, !tbaa !78
  %29 = add nsw i32 %28, -1
  store i32 %29, ptr %27, align 8, !tbaa !78
  %30 = tail call i32 @pthread_mutex_unlock(ptr noundef nonnull %1) #19
  %31 = icmp eq i32 %29, 0
  br i1 %31, label %32, label %46

32:                                               ; preds = %pmix_obj_update.exit
  %33 = getelementptr inbounds nuw i8, ptr %1, i64 40
  %34 = load ptr, ptr %33, align 8, !tbaa !77
  %35 = getelementptr inbounds nuw i8, ptr %34, i64 48
  %36 = load ptr, ptr %35, align 8, !tbaa !88
  %37 = load ptr, ptr %36, align 8, !tbaa !80
  %.not6.i = icmp eq ptr %37, null
  br i1 %.not6.i, label %pmix_obj_run_destructors.exit, label %.lr.ph.i

.lr.ph.i:                                         ; preds = %32, %.lr.ph.i
  %38 = phi ptr [ %40, %.lr.ph.i ], [ %37, %32 ]
  %.07.i = phi ptr [ %39, %.lr.ph.i ], [ %36, %32 ]
  tail call void %38(ptr noundef nonnull %1) #19
  %39 = getelementptr inbounds nuw i8, ptr %.07.i, i64 8
  %40 = load ptr, ptr %39, align 8, !tbaa !80
  %.not.i = icmp eq ptr %40, null
  br i1 %.not.i, label %pmix_obj_run_destructors.exit, label %.lr.ph.i, !llvm.loop !89

pmix_obj_run_destructors.exit:                    ; preds = %.lr.ph.i, %32
  %41 = getelementptr inbounds nuw i8, ptr %1, i64 96
  %42 = load ptr, ptr %41, align 8, !tbaa !90
  %.not25 = icmp eq ptr %42, null
  br i1 %.not25, label %45, label %43

43:                                               ; preds = %pmix_obj_run_destructors.exit
  %44 = getelementptr inbounds nuw i8, ptr %1, i64 56
  tail call void %42(ptr noundef nonnull %44, ptr noundef nonnull %1) #19
  br label %46

45:                                               ; preds = %pmix_obj_run_destructors.exit
  tail call void @free(ptr noundef nonnull %1) #19
  br label %46

46:                                               ; preds = %43, %45, %pmix_obj_update.exit
  ret void
}